target datalayout = "e-m:e-p270:32:32-p271:32:32-p272:64:64-i64:64-i128:128-f80:128-n8:16:32:64-S128"
target triple = "x86_64-pc-linux-gnu"

%"struct.Luau::BlockedType" = type { i32, ptr }

; Function Attrs: mustprogress nounwind uwtable
define dso_local void @_ZN4Luau11BlockedType8setOwnerEPKNS_10ConstraintE(ptr noundef nonnull align 8 dereferenceable(16) %0, ptr noundef %1) #2 align 2 {
  %3 = alloca ptr, align 8
  %4 = alloca ptr, align 8
  store ptr %0, ptr %3, align 8, !tbaa !205
  store ptr %1, ptr %4, align 8, !tbaa !211
  %5 = load ptr, ptr %3, align 8
  %6 = getelementptr inbounds nuw %"struct.Luau::BlockedType", ptr %5, i32 0, i32 1
  %7 = load ptr, ptr %6, align 8, !tbaa !210
  %8 = icmp ne ptr %7, null
  br i1 %8, label %9, label %10

9:                                                ; preds = %2
  br label %13

10:                                               ; preds = %2
  %11 = load ptr, ptr %4, align 8, !tbaa !211
  %12 = getelementptr inbounds nuw %"struct.Luau::BlockedType", ptr %5, i32 0, i32 1
  store ptr %11, ptr %12, align 8, !tbaa !210
  br label %13

13:                                               ; preds = %10, %9
  ret void
}